
UART_1_challenge.elf:     file format elf32-avr

Sections:
Idx Name          Size      VMA       LMA       File off  Algn
  0 .text         000003e0  00000000  00000000  00000074  2**1
                  CONTENTS, ALLOC, LOAD, READONLY, CODE
  1 .data         00000024  00800060  000003e0  00000454  2**0
                  CONTENTS, ALLOC, LOAD, DATA

Disassembly of section .text:

00000000 <__vectors>:
   0:	0c 94 2a 00 	jmp	0x54	; 0x54 <__ctors_end>
   4:	0c 94 3f 00 	jmp	0x7e	; 0x7e <__bad_interrupt>
   8:	0c 94 3f 00 	jmp	0x7e	; 0x7e <__bad_interrupt>
   c:	0c 94 3f 00 	jmp	0x7e	; 0x7e <__bad_interrupt>
  10:	0c 94 3f 00 	jmp	0x7e	; 0x7e <__bad_interrupt>
  14:	0c 94 3f 00 	jmp	0x7e	; 0x7e <__bad_interrupt>
  18:	0c 94 3f 00 	jmp	0x7e	; 0x7e <__bad_interrupt>
  1c:	0c 94 3f 00 	jmp	0x7e	; 0x7e <__bad_interrupt>
  20:	0c 94 3f 00 	jmp	0x7e	; 0x7e <__bad_interrupt>
  24:	0c 94 3f 00 	jmp	0x7e	; 0x7e <__bad_interrupt>
  28:	0c 94 3f 00 	jmp	0x7e	; 0x7e <__bad_interrupt>
  2c:	0c 94 3f 00 	jmp	0x7e	; 0x7e <__bad_interrupt>
  30:	0c 94 3f 00 	jmp	0x7e	; 0x7e <__bad_interrupt>
  34:	0c 94 3f 00 	jmp	0x7e	; 0x7e <__bad_interrupt>
  38:	0c 94 3f 00 	jmp	0x7e	; 0x7e <__bad_interrupt>
  3c:	0c 94 3f 00 	jmp	0x7e	; 0x7e <__bad_interrupt>
  40:	0c 94 3f 00 	jmp	0x7e	; 0x7e <__bad_interrupt>
  44:	0c 94 3f 00 	jmp	0x7e	; 0x7e <__bad_interrupt>
  48:	0c 94 3f 00 	jmp	0x7e	; 0x7e <__bad_interrupt>
  4c:	0c 94 3f 00 	jmp	0x7e	; 0x7e <__bad_interrupt>
  50:	0c 94 3f 00 	jmp	0x7e	; 0x7e <__bad_interrupt>

00000054 <__ctors_end>:
  54:	11 24       	eor	r1, r1
  56:	1f be       	out	0x3f, r1	; 63
  58:	cf e5       	ldi	r28, 0x5F	; 95
  5a:	d4 e0       	ldi	r29, 0x04	; 4
  5c:	de bf       	out	0x3e, r29	; 62
  5e:	cd bf       	out	0x3d, r28	; 61

00000060 <__do_copy_data>:
  60:	10 e0       	ldi	r17, 0x00	; 0
  62:	a0 e6       	ldi	r26, 0x60	; 96
  64:	b0 e0       	ldi	r27, 0x00	; 0
  66:	e0 ee       	ldi	r30, 0xE0	; 224
  68:	f3 e0       	ldi	r31, 0x03	; 3
  6a:	02 c0       	rjmp	.+4      	; 0x70 <.do_copy_data_start>

0000006c <.do_copy_data_loop>:
  6c:	05 90       	lpm	r0, Z+
  6e:	0d 92       	st	X+, r0

00000070 <.do_copy_data_start>:
  70:	a4 38       	cpi	r26, 0x84	; 132
  72:	b1 07       	cpc	r27, r17
  74:	d9 f7       	brne	.-10     	; 0x6c <.do_copy_data_loop>
  76:	0e 94 ff 00 	call	0x1fe	; 0x1fe <main>
  7a:	0c 94 ee 01 	jmp	0x3dc	; 0x3dc <_exit>

0000007e <__bad_interrupt>:
  7e:	0c 94 00 00 	jmp	0	; 0x0 <__vectors>

00000082 <LCD_sendCommand>:
  82:	d9 98       	cbi	0x1b, 1	; 27
  84:	da 98       	cbi	0x1b, 2	; 27
  86:	4a ef       	ldi	r20, 0xFA	; 250
  88:	50 e0       	ldi	r21, 0x00	; 0
  8a:	fa 01       	movw	r30, r20
  8c:	31 97       	sbiw	r30, 0x01	; 1
  8e:	f1 f7       	brne	.-4      	; 0x8c <LCD_sendCommand+0xa>
  90:	db 9a       	sbi	0x1b, 3	; 27
  92:	fa 01       	movw	r30, r20
  94:	31 97       	sbiw	r30, 0x01	; 1
  96:	f1 f7       	brne	.-4      	; 0x94 <LCD_sendCommand+0x12>
  98:	9b b3       	in	r25, 0x1b	; 27
  9a:	28 2f       	mov	r18, r24
  9c:	20 7f       	andi	r18, 0xF0	; 240
  9e:	9f 70       	andi	r25, 0x0F	; 15
  a0:	29 2b       	or	r18, r25
  a2:	2b bb       	out	0x1b, r18	; 27
  a4:	fa 01       	movw	r30, r20
  a6:	31 97       	sbiw	r30, 0x01	; 1
  a8:	f1 f7       	brne	.-4      	; 0xa6 <LCD_sendCommand+0x24>
  aa:	db 98       	cbi	0x1b, 3	; 27
  ac:	fa 01       	movw	r30, r20
  ae:	31 97       	sbiw	r30, 0x01	; 1
  b0:	f1 f7       	brne	.-4      	; 0xae <LCD_sendCommand+0x2c>
  b2:	db 9a       	sbi	0x1b, 3	; 27
  b4:	fa 01       	movw	r30, r20
  b6:	31 97       	sbiw	r30, 0x01	; 1
  b8:	f1 f7       	brne	.-4      	; 0xb6 <LCD_sendCommand+0x34>
  ba:	9b b3       	in	r25, 0x1b	; 27
  bc:	82 95       	swap	r24
  be:	80 7f       	andi	r24, 0xF0	; 240
  c0:	9f 70       	andi	r25, 0x0F	; 15
  c2:	98 2b       	or	r25, r24
  c4:	9b bb       	out	0x1b, r25	; 27
  c6:	ca 01       	movw	r24, r20
  c8:	01 97       	sbiw	r24, 0x01	; 1
  ca:	f1 f7       	brne	.-4      	; 0xc8 <LCD_sendCommand+0x46>
  cc:	db 98       	cbi	0x1b, 3	; 27
  ce:	ca 01       	movw	r24, r20
  d0:	01 97       	sbiw	r24, 0x01	; 1
  d2:	f1 f7       	brne	.-4      	; 0xd0 <LCD_sendCommand+0x4e>
  d4:	08 95       	ret

000000d6 <LCD_init>:
  d6:	8a b3       	in	r24, 0x1a	; 26
  d8:	8e 60       	ori	r24, 0x0E	; 14
  da:	8a bb       	out	0x1a, r24	; 26
  dc:	8a b3       	in	r24, 0x1a	; 26
  de:	80 6f       	ori	r24, 0xF0	; 240
  e0:	8a bb       	out	0x1a, r24	; 26
  e2:	82 e0       	ldi	r24, 0x02	; 2
  e4:	0e 94 41 00 	call	0x82	; 0x82 <LCD_sendCommand>
  e8:	88 e2       	ldi	r24, 0x28	; 40
  ea:	0e 94 41 00 	call	0x82	; 0x82 <LCD_sendCommand>
  ee:	8c e0       	ldi	r24, 0x0C	; 12
  f0:	0e 94 41 00 	call	0x82	; 0x82 <LCD_sendCommand>
  f4:	81 e0       	ldi	r24, 0x01	; 1
  f6:	0e 94 41 00 	call	0x82	; 0x82 <LCD_sendCommand>
  fa:	08 95       	ret

000000fc <LCD_displayCharacter>:
  fc:	d9 9a       	sbi	0x1b, 1	; 27
  fe:	da 98       	cbi	0x1b, 2	; 27
 100:	4a ef       	ldi	r20, 0xFA	; 250
 102:	50 e0       	ldi	r21, 0x00	; 0
 104:	fa 01       	movw	r30, r20
 106:	31 97       	sbiw	r30, 0x01	; 1
 108:	f1 f7       	brne	.-4      	; 0x106 <LCD_displayCharacter+0xa>
 10a:	db 9a       	sbi	0x1b, 3	; 27
 10c:	fa 01       	movw	r30, r20
 10e:	31 97       	sbiw	r30, 0x01	; 1
 110:	f1 f7       	brne	.-4      	; 0x10e <LCD_displayCharacter+0x12>
 112:	9b b3       	in	r25, 0x1b	; 27
 114:	28 2f       	mov	r18, r24
 116:	20 7f       	andi	r18, 0xF0	; 240
 118:	9f 70       	andi	r25, 0x0F	; 15
 11a:	29 2b       	or	r18, r25
 11c:	2b bb       	out	0x1b, r18	; 27
 11e:	fa 01       	movw	r30, r20
 120:	31 97       	sbiw	r30, 0x01	; 1
 122:	f1 f7       	brne	.-4      	; 0x120 <LCD_displayCharacter+0x24>
 124:	db 98       	cbi	0x1b, 3	; 27
 126:	fa 01       	movw	r30, r20
 128:	31 97       	sbiw	r30, 0x01	; 1
 12a:	f1 f7       	brne	.-4      	; 0x128 <LCD_displayCharacter+0x2c>
 12c:	db 9a       	sbi	0x1b, 3	; 27
 12e:	fa 01       	movw	r30, r20
 130:	31 97       	sbiw	r30, 0x01	; 1
 132:	f1 f7       	brne	.-4      	; 0x130 <LCD_displayCharacter+0x34>
 134:	9b b3       	in	r25, 0x1b	; 27
 136:	82 95       	swap	r24
 138:	80 7f       	andi	r24, 0xF0	; 240
 13a:	9f 70       	andi	r25, 0x0F	; 15
 13c:	98 2b       	or	r25, r24
 13e:	9b bb       	out	0x1b, r25	; 27
 140:	ca 01       	movw	r24, r20
 142:	01 97       	sbiw	r24, 0x01	; 1
 144:	f1 f7       	brne	.-4      	; 0x142 <LCD_displayCharacter+0x46>
 146:	db 98       	cbi	0x1b, 3	; 27
 148:	ca 01       	movw	r24, r20
 14a:	01 97       	sbiw	r24, 0x01	; 1
 14c:	f1 f7       	brne	.-4      	; 0x14a <LCD_displayCharacter+0x4e>
 14e:	08 95       	ret

00000150 <LCD_displayString>:
 150:	1f 93       	push	r17
 152:	cf 93       	push	r28
 154:	df 93       	push	r29
 156:	ec 01       	movw	r28, r24
 158:	10 e0       	ldi	r17, 0x00	; 0
 15a:	03 c0       	rjmp	.+6      	; 0x162 <LCD_displayString+0x12>
 15c:	0e 94 7e 00 	call	0xfc	; 0xfc <LCD_displayCharacter>
 160:	1f 5f       	subi	r17, 0xFF	; 255
 162:	fe 01       	movw	r30, r28
 164:	e1 0f       	add	r30, r17
 166:	f1 1d       	adc	r31, r1
 168:	80 81       	ld	r24, Z
 16a:	88 23       	and	r24, r24
 16c:	b9 f7       	brne	.-18     	; 0x15c <LCD_displayString+0xc>
 16e:	df 91       	pop	r29
 170:	cf 91       	pop	r28
 172:	1f 91       	pop	r17
 174:	08 95       	ret

00000176 <LCD_goToRowCol>:
 176:	81 30       	cpi	r24, 0x01	; 1
 178:	39 f0       	breq	.+14     	; 0x188 <LCD_goToRowCol+0x12>
 17a:	81 30       	cpi	r24, 0x01	; 1
 17c:	50 f0       	brcs	.+20     	; 0x192 <LCD_goToRowCol+0x1c>
 17e:	82 30       	cpi	r24, 0x02	; 2
 180:	29 f0       	breq	.+10     	; 0x18c <LCD_goToRowCol+0x16>
 182:	83 30       	cpi	r24, 0x03	; 3
 184:	31 f4       	brne	.+12     	; 0x192 <LCD_goToRowCol+0x1c>
 186:	04 c0       	rjmp	.+8      	; 0x190 <LCD_goToRowCol+0x1a>
 188:	60 5c       	subi	r22, 0xC0	; 192
 18a:	03 c0       	rjmp	.+6      	; 0x192 <LCD_goToRowCol+0x1c>
 18c:	60 5f       	subi	r22, 0xF0	; 240
 18e:	01 c0       	rjmp	.+2      	; 0x192 <LCD_goToRowCol+0x1c>
 190:	60 5b       	subi	r22, 0xB0	; 176
 192:	86 2f       	mov	r24, r22
 194:	80 68       	ori	r24, 0x80	; 128
 196:	0e 94 41 00 	call	0x82	; 0x82 <LCD_sendCommand>
 19a:	08 95       	ret

0000019c <LCD_displayStringRowCol>:
 19c:	0f 93       	push	r16
 19e:	1f 93       	push	r17
 1a0:	8a 01       	movw	r16, r20
 1a2:	0e 94 bb 00 	call	0x176	; 0x176 <LCD_goToRowCol>
 1a6:	c8 01       	movw	r24, r16
 1a8:	0e 94 a8 00 	call	0x150	; 0x150 <LCD_displayString>
 1ac:	1f 91       	pop	r17
 1ae:	0f 91       	pop	r16
 1b0:	08 95       	ret

000001b2 <LCD_clearScreen>:
 1b2:	81 e0       	ldi	r24, 0x01	; 1
 1b4:	0e 94 41 00 	call	0x82	; 0x82 <LCD_sendCommand>
 1b8:	08 95       	ret

000001ba <LCD_intgerToString>:
 1ba:	0f 93       	push	r16
 1bc:	1f 93       	push	r17
 1be:	df 93       	push	r29
 1c0:	cf 93       	push	r28
 1c2:	cd b7       	in	r28, 0x3d	; 61
 1c4:	de b7       	in	r29, 0x3e	; 62
 1c6:	60 97       	sbiw	r28, 0x10	; 16
 1c8:	0f b6       	in	r0, 0x3f	; 63
 1ca:	f8 94       	cli
 1cc:	de bf       	out	0x3e, r29	; 62
 1ce:	0f be       	out	0x3f, r0	; 63
 1d0:	cd bf       	out	0x3d, r28	; 61
 1d2:	8e 01       	movw	r16, r28
 1d4:	0f 5f       	subi	r16, 0xFF	; 255
 1d6:	1f 4f       	sbci	r17, 0xFF	; 255
 1d8:	b8 01       	movw	r22, r16
 1da:	4a e0       	ldi	r20, 0x0A	; 10
 1dc:	50 e0       	ldi	r21, 0x00	; 0
 1de:	0e 94 a9 01 	call	0x352	; 0x352 <itoa>
 1e2:	c8 01       	movw	r24, r16
 1e4:	0e 94 a8 00 	call	0x150	; 0x150 <LCD_displayString>
 1e8:	60 96       	adiw	r28, 0x10	; 16
 1ea:	0f b6       	in	r0, 0x3f	; 63
 1ec:	f8 94       	cli
 1ee:	de bf       	out	0x3e, r29	; 62
 1f0:	0f be       	out	0x3f, r0	; 63
 1f2:	cd bf       	out	0x3d, r28	; 61
 1f4:	cf 91       	pop	r28
 1f6:	df 91       	pop	r29
 1f8:	1f 91       	pop	r17
 1fa:	0f 91       	pop	r16
 1fc:	08 95       	ret

000001fe <main>:
 1fe:	ef 92       	push	r14
 200:	ff 92       	push	r15
 202:	0f 93       	push	r16
 204:	1f 93       	push	r17
 206:	cf 93       	push	r28
 208:	df 93       	push	r29
 20a:	0e 94 73 01 	call	0x2e6	; 0x2e6 <UART_init>
 20e:	ba 98       	cbi	0x17, 2	; 23
 210:	0e 94 6b 00 	call	0xd6	; 0xd6 <LCD_init>
 214:	80 e6       	ldi	r24, 0x60	; 96
 216:	90 e0       	ldi	r25, 0x00	; 0
 218:	0e 94 a8 00 	call	0x150	; 0x150 <LCD_displayString>
 21c:	ee 24       	eor	r14, r14
 21e:	ff 24       	eor	r15, r15
 220:	87 01       	movw	r16, r14
 222:	c4 e2       	ldi	r28, 0x24	; 36
 224:	d4 ef       	ldi	r29, 0xF4	; 244
 226:	b2 9b       	sbis	0x16, 2	; 22
 228:	0b c0       	rjmp	.+22     	; 0x240 <main+0x42>
 22a:	ce 01       	movw	r24, r28
 22c:	01 97       	sbiw	r24, 0x01	; 1
 22e:	f1 f7       	brne	.-4      	; 0x22c <main+0x2e>
 230:	b2 9b       	sbis	0x16, 2	; 22
 232:	12 c0       	rjmp	.+36     	; 0x258 <main+0x5a>
 234:	08 94       	sec
 236:	e1 1c       	adc	r14, r1
 238:	f1 1c       	adc	r15, r1
 23a:	01 1d       	adc	r16, r1
 23c:	11 1d       	adc	r17, r1
 23e:	0c c0       	rjmp	.+24     	; 0x258 <main+0x5a>
 240:	9c 9b       	sbis	0x13, 4	; 19
 242:	0a c0       	rjmp	.+20     	; 0x258 <main+0x5a>
 244:	ce 01       	movw	r24, r28
 246:	01 97       	sbiw	r24, 0x01	; 1
 248:	f1 f7       	brne	.-4      	; 0x246 <main+0x48>
 24a:	9c 9b       	sbis	0x13, 4	; 19
 24c:	05 c0       	rjmp	.+10     	; 0x258 <main+0x5a>
 24e:	08 94       	sec
 250:	e1 08       	sbc	r14, r1
 252:	f1 08       	sbc	r15, r1
 254:	01 09       	sbc	r16, r1
 256:	11 09       	sbc	r17, r1
 258:	8e 2d       	mov	r24, r14
 25a:	0e 94 7d 01 	call	0x2fa	; 0x2fa <UART_sendByte>
 25e:	80 e0       	ldi	r24, 0x00	; 0
 260:	90 e0       	ldi	r25, 0x00	; 0
 262:	6d e0       	ldi	r22, 0x0D	; 13
 264:	70 e0       	ldi	r23, 0x00	; 0
 266:	0e 94 bb 00 	call	0x176	; 0x176 <LCD_goToRowCol>
 26a:	c7 01       	movw	r24, r14
 26c:	0e 94 dd 00 	call	0x1ba	; 0x1ba <LCD_intgerToString>
 270:	da cf       	rjmp	.-76     	; 0x226 <main+0x28>

00000272 <SPI_initMaster>:
 272:	bc 9a       	sbi	0x17, 4	; 23
 274:	bd 9a       	sbi	0x17, 5	; 23
 276:	be 98       	cbi	0x17, 6	; 23
 278:	bf 9a       	sbi	0x17, 7	; 23
 27a:	80 e5       	ldi	r24, 0x50	; 80
 27c:	8d b9       	out	0x0d, r24	; 13
 27e:	08 95       	ret

00000280 <SPI_initSlave>:
 280:	bc 98       	cbi	0x17, 4	; 23
 282:	bd 98       	cbi	0x17, 5	; 23
 284:	be 9a       	sbi	0x17, 6	; 23
 286:	bf 98       	cbi	0x17, 7	; 23
 288:	80 e4       	ldi	r24, 0x40	; 64
 28a:	8d b9       	out	0x0d, r24	; 13
 28c:	08 95       	ret

0000028e <SPI_sendByte>:
 28e:	8f b9       	out	0x0f, r24	; 15
 290:	77 9b       	sbis	0x0e, 7	; 14
 292:	fe cf       	rjmp	.-4      	; 0x290 <SPI_sendByte+0x2>
 294:	08 95       	ret

00000296 <SPI_recieveByte>:
 296:	77 9b       	sbis	0x0e, 7	; 14
 298:	fe cf       	rjmp	.-4      	; 0x296 <SPI_recieveByte>
 29a:	8f b1       	in	r24, 0x0f	; 15
 29c:	08 95       	ret

0000029e <SPI_SendString>:
 29e:	20 e0       	ldi	r18, 0x00	; 0
 2a0:	04 c0       	rjmp	.+8      	; 0x2aa <SPI_SendString+0xc>
 2a2:	ef b9       	out	0x0f, r30	; 15
 2a4:	77 9b       	sbis	0x0e, 7	; 14
 2a6:	fe cf       	rjmp	.-4      	; 0x2a4 <SPI_SendString+0x6>
 2a8:	2f 5f       	subi	r18, 0xFF	; 255
 2aa:	fc 01       	movw	r30, r24
 2ac:	e2 0f       	add	r30, r18
 2ae:	f1 1d       	adc	r31, r1
 2b0:	e0 81       	ld	r30, Z
 2b2:	ee 23       	and	r30, r30
 2b4:	b1 f7       	brne	.-20     	; 0x2a2 <SPI_SendString+0x4>
 2b6:	08 95       	ret

000002b8 <SPI_ReceiveString>:
 2b8:	dc 01       	movw	r26, r24
 2ba:	77 9b       	sbis	0x0e, 7	; 14
 2bc:	fe cf       	rjmp	.-4      	; 0x2ba <SPI_ReceiveString+0x2>
 2be:	8f b1       	in	r24, 0x0f	; 15
 2c0:	8c 93       	st	X, r24
 2c2:	90 e0       	ldi	r25, 0x00	; 0
 2c4:	08 c0       	rjmp	.+16     	; 0x2d6 <SPI_ReceiveString+0x1e>
 2c6:	9f 5f       	subi	r25, 0xFF	; 255
 2c8:	77 9b       	sbis	0x0e, 7	; 14
 2ca:	fe cf       	rjmp	.-4      	; 0x2c8 <SPI_ReceiveString+0x10>
 2cc:	8f b1       	in	r24, 0x0f	; 15
 2ce:	fd 01       	movw	r30, r26
 2d0:	e9 0f       	add	r30, r25
 2d2:	f1 1d       	adc	r31, r1
 2d4:	80 83       	st	Z, r24
 2d6:	fd 01       	movw	r30, r26
 2d8:	e9 0f       	add	r30, r25
 2da:	f1 1d       	adc	r31, r1
 2dc:	80 81       	ld	r24, Z
 2de:	83 32       	cpi	r24, 0x23	; 35
 2e0:	91 f7       	brne	.-28     	; 0x2c6 <SPI_ReceiveString+0xe>
 2e2:	10 82       	st	Z, r1
 2e4:	08 95       	ret

000002e6 <UART_init>:
 2e6:	82 e0       	ldi	r24, 0x02	; 2
 2e8:	8b b9       	out	0x0b, r24	; 11
 2ea:	88 e1       	ldi	r24, 0x18	; 24
 2ec:	8a b9       	out	0x0a, r24	; 10
 2ee:	86 e8       	ldi	r24, 0x86	; 134
 2f0:	80 bd       	out	0x20, r24	; 32
 2f2:	10 bc       	out	0x20, r1	; 32
 2f4:	8c e0       	ldi	r24, 0x0C	; 12
 2f6:	89 b9       	out	0x09, r24	; 9
 2f8:	08 95       	ret

000002fa <UART_sendByte>:
 2fa:	5d 9b       	sbis	0x0b, 5	; 11
 2fc:	fe cf       	rjmp	.-4      	; 0x2fa <UART_sendByte>
 2fe:	8c b9       	out	0x0c, r24	; 12
 300:	08 95       	ret

00000302 <UART_recieveByte>:
 302:	5f 9b       	sbis	0x0b, 7	; 11
 304:	fe cf       	rjmp	.-4      	; 0x302 <UART_recieveByte>
 306:	8c b1       	in	r24, 0x0c	; 12
 308:	08 95       	ret

0000030a <UART_sendString>:
 30a:	20 e0       	ldi	r18, 0x00	; 0
 30c:	04 c0       	rjmp	.+8      	; 0x316 <UART_sendString+0xc>
 30e:	5d 9b       	sbis	0x0b, 5	; 11
 310:	fe cf       	rjmp	.-4      	; 0x30e <UART_sendString+0x4>
 312:	ec b9       	out	0x0c, r30	; 12
 314:	2f 5f       	subi	r18, 0xFF	; 255
 316:	fc 01       	movw	r30, r24
 318:	e2 0f       	add	r30, r18
 31a:	f1 1d       	adc	r31, r1
 31c:	e0 81       	ld	r30, Z
 31e:	ee 23       	and	r30, r30
 320:	b1 f7       	brne	.-20     	; 0x30e <UART_sendString+0x4>
 322:	08 95       	ret

00000324 <UART_receiveString>:
 324:	dc 01       	movw	r26, r24
 326:	5f 9b       	sbis	0x0b, 7	; 11
 328:	fe cf       	rjmp	.-4      	; 0x326 <UART_receiveString+0x2>
 32a:	8c b1       	in	r24, 0x0c	; 12
 32c:	8c 93       	st	X, r24
 32e:	90 e0       	ldi	r25, 0x00	; 0
 330:	08 c0       	rjmp	.+16     	; 0x342 <UART_receiveString+0x1e>
 332:	9f 5f       	subi	r25, 0xFF	; 255
 334:	5f 9b       	sbis	0x0b, 7	; 11
 336:	fe cf       	rjmp	.-4      	; 0x334 <UART_receiveString+0x10>
 338:	8c b1       	in	r24, 0x0c	; 12
 33a:	fd 01       	movw	r30, r26
 33c:	e9 0f       	add	r30, r25
 33e:	f1 1d       	adc	r31, r1
 340:	80 83       	st	Z, r24
 342:	fd 01       	movw	r30, r26
 344:	e9 0f       	add	r30, r25
 346:	f1 1d       	adc	r31, r1
 348:	80 81       	ld	r24, Z
 34a:	83 32       	cpi	r24, 0x23	; 35
 34c:	91 f7       	brne	.-28     	; 0x332 <UART_receiveString+0xe>
 34e:	10 82       	st	Z, r1
 350:	08 95       	ret

00000352 <itoa>:
 352:	fb 01       	movw	r30, r22
 354:	9f 01       	movw	r18, r30
 356:	e8 94       	clt
 358:	42 30       	cpi	r20, 0x02	; 2
 35a:	c4 f0       	brlt	.+48     	; 0x38c <itoa+0x3a>
 35c:	45 32       	cpi	r20, 0x25	; 37
 35e:	b4 f4       	brge	.+44     	; 0x38c <itoa+0x3a>
 360:	4a 30       	cpi	r20, 0x0A	; 10
 362:	29 f4       	brne	.+10     	; 0x36e <itoa+0x1c>
 364:	97 fb       	bst	r25, 7
 366:	1e f4       	brtc	.+6      	; 0x36e <itoa+0x1c>
 368:	90 95       	com	r25
 36a:	81 95       	neg	r24
 36c:	9f 4f       	sbci	r25, 0xFF	; 255
 36e:	64 2f       	mov	r22, r20
 370:	77 27       	eor	r23, r23
 372:	0e 94 da 01 	call	0x3b4	; 0x3b4 <__udivmodhi4>
 376:	80 5d       	subi	r24, 0xD0	; 208
 378:	8a 33       	cpi	r24, 0x3A	; 58
 37a:	0c f0       	brlt	.+2      	; 0x37e <itoa+0x2c>
 37c:	89 5d       	subi	r24, 0xD9	; 217
 37e:	81 93       	st	Z+, r24
 380:	cb 01       	movw	r24, r22
 382:	00 97       	sbiw	r24, 0x00	; 0
 384:	a1 f7       	brne	.-24     	; 0x36e <itoa+0x1c>
 386:	16 f4       	brtc	.+4      	; 0x38c <itoa+0x3a>
 388:	5d e2       	ldi	r21, 0x2D	; 45
 38a:	51 93       	st	Z+, r21
 38c:	10 82       	st	Z, r1
 38e:	c9 01       	movw	r24, r18
 390:	0c 94 ca 01 	jmp	0x394	; 0x394 <strrev>

00000394 <strrev>:
 394:	dc 01       	movw	r26, r24
 396:	fc 01       	movw	r30, r24
 398:	67 2f       	mov	r22, r23
 39a:	71 91       	ld	r23, Z+
 39c:	77 23       	and	r23, r23
 39e:	e1 f7       	brne	.-8      	; 0x398 <strrev+0x4>
 3a0:	32 97       	sbiw	r30, 0x02	; 2
 3a2:	04 c0       	rjmp	.+8      	; 0x3ac <strrev+0x18>
 3a4:	7c 91       	ld	r23, X
 3a6:	6d 93       	st	X+, r22
 3a8:	70 83       	st	Z, r23
 3aa:	62 91       	ld	r22, -Z
 3ac:	ae 17       	cp	r26, r30
 3ae:	bf 07       	cpc	r27, r31
 3b0:	c8 f3       	brcs	.-14     	; 0x3a4 <strrev+0x10>
 3b2:	08 95       	ret

000003b4 <__udivmodhi4>:
 3b4:	aa 1b       	sub	r26, r26
 3b6:	bb 1b       	sub	r27, r27
 3b8:	51 e1       	ldi	r21, 0x11	; 17
 3ba:	07 c0       	rjmp	.+14     	; 0x3ca <__udivmodhi4_ep>

000003bc <__udivmodhi4_loop>:
 3bc:	aa 1f       	adc	r26, r26
 3be:	bb 1f       	adc	r27, r27
 3c0:	a6 17       	cp	r26, r22
 3c2:	b7 07       	cpc	r27, r23
 3c4:	10 f0       	brcs	.+4      	; 0x3ca <__udivmodhi4_ep>
 3c6:	a6 1b       	sub	r26, r22
 3c8:	b7 0b       	sbc	r27, r23

000003ca <__udivmodhi4_ep>:
 3ca:	88 1f       	adc	r24, r24
 3cc:	99 1f       	adc	r25, r25
 3ce:	5a 95       	dec	r21
 3d0:	a9 f7       	brne	.-22     	; 0x3bc <__udivmodhi4_loop>
 3d2:	80 95       	com	r24
 3d4:	90 95       	com	r25
 3d6:	bc 01       	movw	r22, r24
 3d8:	cd 01       	movw	r24, r26
 3da:	08 95       	ret

000003dc <_exit>:
 3dc:	f8 94       	cli

000003de <__stop_program>:
 3de:	ff cf       	rjmp	.-2      	; 0x3de <__stop_program>
